; Function Attrs: nounwind uwtable
define internal fastcc void @_jumbleCreateSeqStmt(ptr noundef %0, ptr noundef nonnull readonly captures(none) %1) unnamed_addr #0 {
  %3 = getelementptr inbounds nuw i8, ptr %1, i64 8
  %4 = load ptr, ptr %3, align 8
  tail call fastcc void @_jumbleNode(ptr noundef %0, ptr noundef %4)
  %5 = getelementptr inbounds nuw i8, ptr %1, i64 16
  %6 = load ptr, ptr %5, align 8
  tail call fastcc void @_jumbleNode(ptr noundef %0, ptr noundef %6)
  %7 = getelementptr inbounds nuw i8, ptr %1, i64 24
  %8 = load ptr, ptr %0, align 8
  %9 = getelementptr inbounds nuw i8, ptr %0, i64 8
  %10 = load i64, ptr %9, align 8
  br label %.lr.ph.i

.lr.ph.i:                                         ; preds = %14, %2
  %.026.i = phi ptr [ %19, %14 ], [ %7, %2 ]
  %.02125.i = phi i64 [ %20, %14 ], [ 4, %2 ]
  %.02224.i = phi i64 [ %18, %14 ], [ %10, %2 ]
  %11 = icmp ugt i64 %.02224.i, 1023
  br i1 %11, label %12, label %14

12:                                               ; preds = %.lr.ph.i
  %13 = tail call i64 @hash_bytes_extended(ptr noundef %8, i32 noundef 1024, i64 noundef 0) #9
  store i64 %13, ptr %8, align 1
  br label %14

14:                                               ; preds = %12, %.lr.ph.i
  %.1.i = phi i64 [ 8, %12 ], [ %.02224.i, %.lr.ph.i ]
  %15 = sub nuw nsw i64 1024, %.1.i
  %16 = tail call i64 @llvm.umin.i64(i64 %.02125.i, i64 %15)
  %17 = getelementptr inbounds nuw i8, ptr %8, i64 %.1.i
  tail call void @llvm.memcpy.p0.p0.i64(ptr noundef nonnull align 1 dereferenceable(1) %17, ptr noundef nonnull align 1 dereferenceable(1) %.026.i, i64 %16, i1 false)
  %18 = add nuw nsw i64 %16, %.1.i
  %19 = getelementptr inbounds nuw i8, ptr %.026.i, i64 %16
  %20 = sub i64 %.02125.i, %16
  %.not.i = icmp eq i64 %20, 0
  br i1 %.not.i, label %AppendJumble.exit, label %.lr.ph.i, !llvm.loop !7

AppendJumble.exit:                                ; preds = %14
  store i64 %18, ptr %9, align 8
  %21 = getelementptr inbounds nuw i8, ptr %1, i64 28
  %22 = load ptr, ptr %0, align 8
  br label %.lr.ph.i11

.lr.ph.i11:                                       ; preds = %26, %AppendJumble.exit
  %.026.i12 = phi ptr [ %31, %26 ], [ %21, %AppendJumble.exit ]
  %.02125.i13 = phi i64 [ %32, %26 ], [ 1, %AppendJumble.exit ]
  %.02224.i14 = phi i64 [ %30, %26 ], [ %18, %AppendJumble.exit ]
  %23 = icmp ugt i64 %.02224.i14, 1023
  br i1 %23, label %24, label %26

24:                                               ; preds = %.lr.ph.i11
  %25 = tail call i64 @hash_bytes_extended(ptr noundef %22, i32 noundef 1024, i64 noundef 0) #9
  store i64 %25, ptr %22, align 1
  br label %26

26:                                               ; preds = %24, %.lr.ph.i11
  %.1.i15 = phi i64 [ 8, %24 ], [ %.02224.i14, %.lr.ph.i11 ]
  %27 = sub nuw nsw i64 1024, %.1.i15
  %28 = tail call i64 @llvm.umin.i64(i64 %.02125.i13, i64 %27)
  %29 = getelementptr inbounds nuw i8, ptr %22, i64 %.1.i15
  tail call void @llvm.memcpy.p0.p0.i64(ptr noundef nonnull align 1 dereferenceable(1) %29, ptr noundef nonnull align 1 dereferenceable(1) %.026.i12, i64 %28, i1 false)
  %30 = add nuw nsw i64 %28, %.1.i15
  %31 = getelementptr inbounds nuw i8, ptr %.026.i12, i64 %28
  %32 = sub i64 %.02125.i13, %28
  %.not.i16 = icmp eq i64 %32, 0
  br i1 %.not.i16, label %AppendJumble.exit17, label %.lr.ph.i11, !llvm.loop !7

AppendJumble.exit17:                              ; preds = %26
  store i64 %30, ptr %9, align 8
  %33 = getelementptr inbounds nuw i8, ptr %1, i64 29
  %34 = load ptr, ptr %0, align 8
  br label %.lr.ph.i18

.lr.ph.i18:                                       ; preds = %38, %AppendJumble.exit17
  %.026.i19 = phi ptr [ %43, %38 ], [ %33, %AppendJumble.exit17 ]
  %.02125.i20 = phi i64 [ %44, %38 ], [ 1, %AppendJumble.exit17 ]
  %.02224.i21 = phi i64 [ %42, %38 ], [ %30, %AppendJumble.exit17 ]
  %35 = icmp ugt i64 %.02224.i21, 1023
  br i1 %35, label %36, label %38

36:                                               ; preds = %.lr.ph.i18
  %37 = tail call i64 @hash_bytes_extended(ptr noundef %34, i32 noundef 1024, i64 noundef 0) #9
  store i64 %37, ptr %34, align 1
  br label %38

38:                                               ; preds = %36, %.lr.ph.i18
  %.1.i22 = phi i64 [ 8, %36 ], [ %.02224.i21, %.lr.ph.i18 ]
  %39 = sub nuw nsw i64 1024, %.1.i22
  %40 = tail call i64 @llvm.umin.i64(i64 %.02125.i20, i64 %39)
  %41 = getelementptr inbounds nuw i8, ptr %34, i64 %.1.i22
  tail call void @llvm.memcpy.p0.p0.i64(ptr noundef nonnull align 1 dereferenceable(1) %41, ptr noundef nonnull align 1 dereferenceable(1) %.026.i19, i64 %40, i1 false)
  %42 = add nuw nsw i64 %40, %.1.i22
  %43 = getelementptr inbounds nuw i8, ptr %.026.i19, i64 %40
  %44 = sub i64 %.02125.i20, %40
  %.not.i23 = icmp eq i64 %44, 0
  br i1 %.not.i23, label %AppendJumble.exit24, label %.lr.ph.i18, !llvm.loop !7

AppendJumble.exit24:                              ; preds = %38
  store i64 %42, ptr %9, align 8
  ret void
}